; ModuleID = 'test3.cpp'
source_filename = "test3.cpp"
target datalayout = "e-m:e-i64:64-f80:128-n8:16:32:64-S128"
target triple = "x86_64-pc-linux-gnu"

%"class.std::ios_base::Init" = type { i8 }
%"class.std::basic_ostream" = type { i32 (...)**, %"class.std::basic_ios" }
%"class.std::basic_ios" = type { %"class.std::ios_base", %"class.std::basic_ostream"*, i8, i8, %"class.std::basic_streambuf"*, %"class.std::ctype"*, %"class.std::num_put"*, %"class.std::num_get"* }
%"class.std::ios_base" = type { i32 (...)**, i64, i64, i32, i32, i32, %"struct.std::ios_base::_Callback_list"*, %"struct.std::ios_base::_Words", [8 x %"struct.std::ios_base::_Words"], i32, %"struct.std::ios_base::_Words"*, %"class.std::locale" }
%"struct.std::ios_base::_Callback_list" = type { %"struct.std::ios_base::_Callback_list"*, void (i32, %"class.std::ios_base"*, i32)*, i32, i32 }
%"struct.std::ios_base::_Words" = type { i8*, i64 }
%"class.std::locale" = type { %"class.std::locale::_Impl"* }
%"class.std::locale::_Impl" = type { i32, %"class.std::locale::facet"**, i64, %"class.std::locale::facet"**, i8** }
%"class.std::locale::facet" = type <{ i32 (...)**, i32, [4 x i8] }>
%"class.std::basic_streambuf" = type { i32 (...)**, i8*, i8*, i8*, i8*, i8*, i8*, %"class.std::locale" }
%"class.std::ctype" = type <{ %"class.std::locale::facet.base", [4 x i8], %struct.__locale_struct*, i8, [7 x i8], i32*, i32*, i16*, i8, [256 x i8], [256 x i8], i8, [6 x i8] }>
%"class.std::locale::facet.base" = type <{ i32 (...)**, i32 }>
%struct.__locale_struct = type { [13 x %struct.__locale_data*], i16*, i32*, i32*, [13 x i8*] }
%struct.__locale_data = type opaque
%"class.std::num_put" = type { %"class.std::locale::facet.base", [4 x i8] }
%"class.std::num_get" = type { %"class.std::locale::facet.base", [4 x i8] }
%"class.std::basic_istream" = type { i32 (...)**, i64, %"class.std::basic_ios" }
%"class.std::__cxx11::basic_string" = type { %"struct.std::__cxx11::basic_string<char, std::char_traits<char>, std::allocator<char> >::_Alloc_hider", i64, %union.anon }
%"struct.std::__cxx11::basic_string<char, std::char_traits<char>, std::allocator<char> >::_Alloc_hider" = type { i8* }
%union.anon = type { i64, [8 x i8] }

$_ZStgtIcSt11char_traitsIcESaIcEEbRKNSt7__cxx1112basic_stringIT_T0_T1_EESA_ = comdat any

$__clang_call_terminate = comdat any

@_ZStL8__ioinit = internal global %"class.std::ios_base::Init" zeroinitializer, align 1
@__dso_handle = external hidden global i8
@_ZSt4cout = external global %"class.std::basic_ostream", align 8
@.str = private unnamed_addr constant [17 x i8] c"Enter 10 words: \00", align 1
@_ZSt3cin = external global %"class.std::basic_istream", align 8
@.str.1 = private unnamed_addr constant [27 x i8] c"In lexicographical order: \00", align 1
@llvm.global_ctors = appending global [1 x { i32, void ()*, i8* }] [{ i32, void ()*, i8* } { i32 65535, void ()* @_GLOBAL__sub_I_test3.cpp, i8* null }]

; Function Attrs: noinline uwtable
define internal void @__cxx_global_var_init() #0 section ".text.startup" {
  call void @_ZNSt8ios_base4InitC1Ev(%"class.std::ios_base::Init"* @_ZStL8__ioinit)
  %1 = call i32 @__cxa_atexit(void (i8*)* bitcast (void (%"class.std::ios_base::Init"*)* @_ZNSt8ios_base4InitD1Ev to void (i8*)*), i8* getelementptr inbounds (%"class.std::ios_base::Init", %"class.std::ios_base::Init"* @_ZStL8__ioinit, i32 0, i32 0), i8* @__dso_handle) #3
  ret void
}

declare void @_ZNSt8ios_base4InitC1Ev(%"class.std::ios_base::Init"*) unnamed_addr #1

; Function Attrs: nounwind
declare void @_ZNSt8ios_base4InitD1Ev(%"class.std::ios_base::Init"*) unnamed_addr #2

; Function Attrs: nounwind
declare i32 @__cxa_atexit(void (i8*)*, i8*, i8*) #3

; Function Attrs: noinline norecurse optnone uwtable
define i32 @main() #4 personality i8* bitcast (i32 (...)* @__gxx_personality_v0 to i8*) {
  %1 = alloca i32, align 4
  %2 = alloca [10 x %"class.std::__cxx11::basic_string"], align 16
  %3 = alloca %"class.std::__cxx11::basic_string", align 8
  %4 = alloca i8*
  %5 = alloca i32
  %6 = alloca i32, align 4
  %7 = alloca i32, align 4
  %8 = alloca i32, align 4
  %9 = alloca i32, align 4
  store i32 0, i32* %1, align 4
  %10 = getelementptr inbounds [10 x %"class.std::__cxx11::basic_string"], [10 x %"class.std::__cxx11::basic_string"]* %2, i32 0, i32 0
  %11 = getelementptr inbounds %"class.std::__cxx11::basic_string", %"class.std::__cxx11::basic_string"* %10, i64 10
  br label %12

; <label>:12:                                     ; preds = %12, %0
  %13 = phi %"class.std::__cxx11::basic_string"* [ %10, %0 ], [ %14, %12 ]
  call void @_ZNSt7__cxx1112basic_stringIcSt11char_traitsIcESaIcEEC1Ev(%"class.std::__cxx11::basic_string"* %13) #3
  %14 = getelementptr inbounds %"class.std::__cxx11::basic_string", %"class.std::__cxx11::basic_string"* %13, i64 1
  %15 = icmp eq %"class.std::__cxx11::basic_string"* %14, %11
  br i1 %15, label %16, label %12

; <label>:16:                                     ; preds = %12
  call void @_ZNSt7__cxx1112basic_stringIcSt11char_traitsIcESaIcEEC1Ev(%"class.std::__cxx11::basic_string"* %3) #3
  %17 = invoke dereferenceable(272) %"class.std::basic_ostream"* @_ZStlsISt11char_traitsIcEERSt13basic_ostreamIcT_ES5_PKc(%"class.std::basic_ostream"* dereferenceable(272) @_ZSt4cout, i8* getelementptr inbounds ([17 x i8], [17 x i8]* @.str, i32 0, i32 0))
          to label %18 unwind label %33

; <label>:18:                                     ; preds = %16
  %19 = invoke dereferenceable(272) %"class.std::basic_ostream"* @_ZNSolsEPFRSoS_E(%"class.std::basic_ostream"* %17, %"class.std::basic_ostream"* (%"class.std::basic_ostream"*)* @_ZSt4endlIcSt11char_traitsIcEERSt13basic_ostreamIT_T0_ES6_)
          to label %20 unwind label %33

; <label>:20:                                     ; preds = %18
  store i32 0, i32* %6, align 4
  br label %21

; <label>:21:                                     ; preds = %30, %20
  %22 = load i32, i32* %6, align 4
  %23 = icmp slt i32 %22, 10
  br i1 %23, label %24, label %39

; <label>:24:                                     ; preds = %21
  %25 = load i32, i32* %6, align 4
  %26 = sext i32 %25 to i64
  %27 = getelementptr inbounds [10 x %"class.std::__cxx11::basic_string"], [10 x %"class.std::__cxx11::basic_string"]* %2, i64 0, i64 %26
  %28 = invoke dereferenceable(280) %"class.std::basic_istream"* @_ZSt7getlineIcSt11char_traitsIcESaIcEERSt13basic_istreamIT_T0_ES7_RNSt7__cxx1112basic_stringIS4_S5_T1_EE(%"class.std::basic_istream"* dereferenceable(280) @_ZSt3cin, %"class.std::__cxx11::basic_string"* dereferenceable(32) %27)
          to label %29 unwind label %33

; <label>:29:                                     ; preds = %24
  br label %30

; <label>:30:                                     ; preds = %29
  %31 = load i32, i32* %6, align 4
  %32 = add nsw i32 %31, 1
  store i32 %32, i32* %6, align 4
  br label %21

; <label>:33:                                     ; preds = %97, %92, %86, %84, %70, %62, %57, %24, %18, %16
  %34 = landingpad { i8*, i32 }
          cleanup
  %35 = extractvalue { i8*, i32 } %34, 0
  store i8* %35, i8** %4, align 8
  %36 = extractvalue { i8*, i32 } %34, 1
  store i32 %36, i32* %5, align 4
  call void @_ZNSt7__cxx1112basic_stringIcSt11char_traitsIcESaIcEED1Ev(%"class.std::__cxx11::basic_string"* %3) #3
  %37 = getelementptr inbounds [10 x %"class.std::__cxx11::basic_string"], [10 x %"class.std::__cxx11::basic_string"]* %2, i32 0, i32 0
  %38 = getelementptr inbounds %"class.std::__cxx11::basic_string", %"class.std::__cxx11::basic_string"* %37, i64 10
  br label %112

; <label>:39:                                     ; preds = %21
  store i32 0, i32* %7, align 4
  br label %40

; <label>:40:                                     ; preds = %81, %39
  %41 = load i32, i32* %7, align 4
  %42 = icmp slt i32 %41, 9
  br i1 %42, label %43, label %84

; <label>:43:                                     ; preds = %40
  %44 = load i32, i32* %7, align 4
  %45 = add nsw i32 %44, 1
  store i32 %45, i32* %8, align 4
  br label %46

; <label>:46:                                     ; preds = %77, %43
  %47 = load i32, i32* %8, align 4
  %48 = icmp slt i32 %47, 10
  br i1 %48, label %49, label %80

; <label>:49:                                     ; preds = %46
  %50 = load i32, i32* %7, align 4
  %51 = sext i32 %50 to i64
  %52 = getelementptr inbounds [10 x %"class.std::__cxx11::basic_string"], [10 x %"class.std::__cxx11::basic_string"]* %2, i64 0, i64 %51
  %53 = load i32, i32* %8, align 4
  %54 = sext i32 %53 to i64
  %55 = getelementptr inbounds [10 x %"class.std::__cxx11::basic_string"], [10 x %"class.std::__cxx11::basic_string"]* %2, i64 0, i64 %54
  %56 = call zeroext i1 @_ZStgtIcSt11char_traitsIcESaIcEEbRKNSt7__cxx1112basic_stringIT_T0_T1_EESA_(%"class.std::__cxx11::basic_string"* dereferenceable(32) %52, %"class.std::__cxx11::basic_string"* dereferenceable(32) %55) #3
  br i1 %56, label %57, label %76

; <label>:57:                                     ; preds = %49
  %58 = load i32, i32* %7, align 4
  %59 = sext i32 %58 to i64
  %60 = getelementptr inbounds [10 x %"class.std::__cxx11::basic_string"], [10 x %"class.std::__cxx11::basic_string"]* %2, i64 0, i64 %59
  %61 = invoke dereferenceable(32) %"class.std::__cxx11::basic_string"* @_ZNSt7__cxx1112basic_stringIcSt11char_traitsIcESaIcEEaSERKS4_(%"class.std::__cxx11::basic_string"* %3, %"class.std::__cxx11::basic_string"* dereferenceable(32) %60)
          to label %62 unwind label %33

; <label>:62:                                     ; preds = %57
  %63 = load i32, i32* %8, align 4
  %64 = sext i32 %63 to i64
  %65 = getelementptr inbounds [10 x %"class.std::__cxx11::basic_string"], [10 x %"class.std::__cxx11::basic_string"]* %2, i64 0, i64 %64
  %66 = load i32, i32* %7, align 4
  %67 = sext i32 %66 to i64
  %68 = getelementptr inbounds [10 x %"class.std::__cxx11::basic_string"], [10 x %"class.std::__cxx11::basic_string"]* %2, i64 0, i64 %67
  %69 = invoke dereferenceable(32) %"class.std::__cxx11::basic_string"* @_ZNSt7__cxx1112basic_stringIcSt11char_traitsIcESaIcEEaSERKS4_(%"class.std::__cxx11::basic_string"* %68, %"class.std::__cxx11::basic_string"* dereferenceable(32) %65)
          to label %70 unwind label %33

; <label>:70:                                     ; preds = %62
  %71 = load i32, i32* %8, align 4
  %72 = sext i32 %71 to i64
  %73 = getelementptr inbounds [10 x %"class.std::__cxx11::basic_string"], [10 x %"class.std::__cxx11::basic_string"]* %2, i64 0, i64 %72
  %74 = invoke dereferenceable(32) %"class.std::__cxx11::basic_string"* @_ZNSt7__cxx1112basic_stringIcSt11char_traitsIcESaIcEEaSERKS4_(%"class.std::__cxx11::basic_string"* %73, %"class.std::__cxx11::basic_string"* dereferenceable(32) %3)
          to label %75 unwind label %33

; <label>:75:                                     ; preds = %70
  br label %76

; <label>:76:                                     ; preds = %75, %49
  br label %77

; <label>:77:                                     ; preds = %76
  %78 = load i32, i32* %8, align 4
  %79 = add nsw i32 %78, 1
  store i32 %79, i32* %8, align 4
  br label %46

; <label>:80:                                     ; preds = %46
  br label %81

; <label>:81:                                     ; preds = %80
  %82 = load i32, i32* %7, align 4
  %83 = add nsw i32 %82, 1
  store i32 %83, i32* %7, align 4
  br label %40

; <label>:84:                                     ; preds = %40
  %85 = invoke dereferenceable(272) %"class.std::basic_ostream"* @_ZStlsISt11char_traitsIcEERSt13basic_ostreamIcT_ES5_PKc(%"class.std::basic_ostream"* dereferenceable(272) @_ZSt4cout, i8* getelementptr inbounds ([27 x i8], [27 x i8]* @.str.1, i32 0, i32 0))
          to label %86 unwind label %33

; <label>:86:                                     ; preds = %84
  %87 = invoke dereferenceable(272) %"class.std::basic_ostream"* @_ZNSolsEPFRSoS_E(%"class.std::basic_ostream"* %85, %"class.std::basic_ostream"* (%"class.std::basic_ostream"*)* @_ZSt4endlIcSt11char_traitsIcEERSt13basic_ostreamIT_T0_ES6_)
          to label %88 unwind label %33

; <label>:88:                                     ; preds = %86
  store i32 0, i32* %9, align 4
  br label %89

; <label>:89:                                     ; preds = %100, %88
  %90 = load i32, i32* %9, align 4
  %91 = icmp slt i32 %90, 10
  br i1 %91, label %92, label %103

; <label>:92:                                     ; preds = %89
  %93 = load i32, i32* %9, align 4
  %94 = sext i32 %93 to i64
  %95 = getelementptr inbounds [10 x %"class.std::__cxx11::basic_string"], [10 x %"class.std::__cxx11::basic_string"]* %2, i64 0, i64 %94
  %96 = invoke dereferenceable(272) %"class.std::basic_ostream"* @_ZStlsIcSt11char_traitsIcESaIcEERSt13basic_ostreamIT_T0_ES7_RKNSt7__cxx1112basic_stringIS4_S5_T1_EE(%"class.std::basic_ostream"* dereferenceable(272) @_ZSt4cout, %"class.std::__cxx11::basic_string"* dereferenceable(32) %95)
          to label %97 unwind label %33

; <label>:97:                                     ; preds = %92
  %98 = invoke dereferenceable(272) %"class.std::basic_ostream"* @_ZNSolsEPFRSoS_E(%"class.std::basic_ostream"* %96, %"class.std::basic_ostream"* (%"class.std::basic_ostream"*)* @_ZSt4endlIcSt11char_traitsIcEERSt13basic_ostreamIT_T0_ES6_)
          to label %99 unwind label %33

; <label>:99:                                     ; preds = %97
  br label %100

; <label>:100:                                    ; preds = %99
  %101 = load i32, i32* %9, align 4
  %102 = add nsw i32 %101, 1
  store i32 %102, i32* %9, align 4
  br label %89

; <label>:103:                                    ; preds = %89
  store i32 0, i32* %1, align 4
  call void @_ZNSt7__cxx1112basic_stringIcSt11char_traitsIcESaIcEED1Ev(%"class.std::__cxx11::basic_string"* %3) #3
  %104 = getelementptr inbounds [10 x %"class.std::__cxx11::basic_string"], [10 x %"class.std::__cxx11::basic_string"]* %2, i32 0, i32 0
  %105 = getelementptr inbounds %"class.std::__cxx11::basic_string", %"class.std::__cxx11::basic_string"* %104, i64 10
  br label %106

; <label>:106:                                    ; preds = %106, %103
  %107 = phi %"class.std::__cxx11::basic_string"* [ %105, %103 ], [ %108, %106 ]
  %108 = getelementptr inbounds %"class.std::__cxx11::basic_string", %"class.std::__cxx11::basic_string"* %107, i64 -1
  call void @_ZNSt7__cxx1112basic_stringIcSt11char_traitsIcESaIcEED1Ev(%"class.std::__cxx11::basic_string"* %108) #3
  %109 = icmp eq %"class.std::__cxx11::basic_string"* %108, %104
  br i1 %109, label %110, label %106

; <label>:110:                                    ; preds = %106
  %111 = load i32, i32* %1, align 4
  ret i32 %111

; <label>:112:                                    ; preds = %112, %33
  %113 = phi %"class.std::__cxx11::basic_string"* [ %38, %33 ], [ %114, %112 ]
  %114 = getelementptr inbounds %"class.std::__cxx11::basic_string", %"class.std::__cxx11::basic_string"* %113, i64 -1
  call void @_ZNSt7__cxx1112basic_stringIcSt11char_traitsIcESaIcEED1Ev(%"class.std::__cxx11::basic_string"* %114) #3
  %115 = icmp eq %"class.std::__cxx11::basic_string"* %114, %37
  br i1 %115, label %116, label %112

; <label>:116:                                    ; preds = %112
  br label %117

; <label>:117:                                    ; preds = %116
  %118 = load i8*, i8** %4, align 8
  %119 = load i32, i32* %5, align 4
  %120 = insertvalue { i8*, i32 } undef, i8* %118, 0
  %121 = insertvalue { i8*, i32 } %120, i32 %119, 1
  resume { i8*, i32 } %121
}

; Function Attrs: nounwind
declare void @_ZNSt7__cxx1112basic_stringIcSt11char_traitsIcESaIcEEC1Ev(%"class.std::__cxx11::basic_string"*) unnamed_addr #2

declare dereferenceable(272) %"class.std::basic_ostream"* @_ZStlsISt11char_traitsIcEERSt13basic_ostreamIcT_ES5_PKc(%"class.std::basic_ostream"* dereferenceable(272), i8*) #1

declare i32 @__gxx_personality_v0(...)

declare dereferenceable(272) %"class.std::basic_ostream"* @_ZNSolsEPFRSoS_E(%"class.std::basic_ostream"*, %"class.std::basic_ostream"* (%"class.std::basic_ostream"*)*) #1

declare dereferenceable(272) %"class.std::basic_ostream"* @_ZSt4endlIcSt11char_traitsIcEERSt13basic_ostreamIT_T0_ES6_(%"class.std::basic_ostream"* dereferenceable(272)) #1

declare dereferenceable(280) %"class.std::basic_istream"* @_ZSt7getlineIcSt11char_traitsIcESaIcEERSt13basic_istreamIT_T0_ES7_RNSt7__cxx1112basic_stringIS4_S5_T1_EE(%"class.std::basic_istream"* dereferenceable(280), %"class.std::__cxx11::basic_string"* dereferenceable(32)) #1

; Function Attrs: noinline nounwind optnone uwtable
define linkonce_odr zeroext i1 @_ZStgtIcSt11char_traitsIcESaIcEEbRKNSt7__cxx1112basic_stringIT_T0_T1_EESA_(%"class.std::__cxx11::basic_string"* dereferenceable(32), %"class.std::__cxx11::basic_string"* dereferenceable(32)) #5 comdat personality i8* bitcast (i32 (...)* @__gxx_personality_v0 to i8*) {
  %3 = alloca %"class.std::__cxx11::basic_string"*, align 8
  %4 = alloca %"class.std::__cxx11::basic_string"*, align 8
  store %"class.std::__cxx11::basic_string"* %0, %"class.std::__cxx11::basic_string"** %3, align 8
  store %"class.std::__cxx11::basic_string"* %1, %"class.std::__cxx11::basic_string"** %4, align 8
  %5 = load %"class.std::__cxx11::basic_string"*, %"class.std::__cxx11::basic_string"** %3, align 8
  %6 = load %"class.std::__cxx11::basic_string"*, %"class.std::__cxx11::basic_string"** %4, align 8
  %7 = invoke i32 @_ZNKSt7__cxx1112basic_stringIcSt11char_traitsIcESaIcEE7compareERKS4_(%"class.std::__cxx11::basic_string"* %5, %"class.std::__cxx11::basic_string"* dereferenceable(32) %6)
          to label %8 unwind label %10

; <label>:8:                                      ; preds = %2
  %9 = icmp sgt i32 %7, 0
  ret i1 %9

; <label>:10:                                     ; preds = %2
  %11 = landingpad { i8*, i32 }
          catch i8* null
  %12 = extractvalue { i8*, i32 } %11, 0
  call void @__clang_call_terminate(i8* %12) #7
  unreachable
}

declare dereferenceable(32) %"class.std::__cxx11::basic_string"* @_ZNSt7__cxx1112basic_stringIcSt11char_traitsIcESaIcEEaSERKS4_(%"class.std::__cxx11::basic_string"*, %"class.std::__cxx11::basic_string"* dereferenceable(32)) #1

declare dereferenceable(272) %"class.std::basic_ostream"* @_ZStlsIcSt11char_traitsIcESaIcEERSt13basic_ostreamIT_T0_ES7_RKNSt7__cxx1112basic_stringIS4_S5_T1_EE(%"class.std::basic_ostream"* dereferenceable(272), %"class.std::__cxx11::basic_string"* dereferenceable(32)) #1

; Function Attrs: nounwind
declare void @_ZNSt7__cxx1112basic_stringIcSt11char_traitsIcESaIcEED1Ev(%"class.std::__cxx11::basic_string"*) unnamed_addr #2

declare i32 @_ZNKSt7__cxx1112basic_stringIcSt11char_traitsIcESaIcEE7compareERKS4_(%"class.std::__cxx11::basic_string"*, %"class.std::__cxx11::basic_string"* dereferenceable(32)) #1

; Function Attrs: noinline noreturn nounwind
define linkonce_odr hidden void @__clang_call_terminate(i8*) #6 comdat {
  %2 = call i8* @__cxa_begin_catch(i8* %0) #3
  call void @_ZSt9terminatev() #7
  unreachable
}

declare i8* @__cxa_begin_catch(i8*)

declare void @_ZSt9terminatev()

; Function Attrs: noinline uwtable
define internal void @_GLOBAL__sub_I_test3.cpp() #0 section ".text.startup" {
  call void @__cxx_global_var_init()
  ret void
}

attributes #0 = { noinline uwtable "correctly-rounded-divide-sqrt-fp-math"="false" "disable-tail-calls"="false" "less-precise-fpmad"="false" "no-frame-pointer-elim"="true" "no-frame-pointer-elim-non-leaf" "no-infs-fp-math"="false" "no-jump-tables"="false" "no-nans-fp-math"="false" "no-signed-zeros-fp-math"="false" "no-trapping-math"="false" "stack-protector-buffer-size"="8" "target-cpu"="x86-64" "target-features"="+fxsr,+mmx,+sse,+sse2,+x87" "unsafe-fp-math"="false" "use-soft-float"="false" }
attributes #1 = { "correctly-rounded-divide-sqrt-fp-math"="false" "disable-tail-calls"="false" "less-precise-fpmad"="false" "no-frame-pointer-elim"="true" "no-frame-pointer-elim-non-leaf" "no-infs-fp-math"="false" "no-nans-fp-math"="false" "no-signed-zeros-fp-math"="false" "no-trapping-math"="false" "stack-protector-buffer-size"="8" "target-cpu"="x86-64" "target-features"="+fxsr,+mmx,+sse,+sse2,+x87" "unsafe-fp-math"="false" "use-soft-float"="false" }
attributes #2 = { nounwind "correctly-rounded-divide-sqrt-fp-math"="false" "disable-tail-calls"="false" "less-precise-fpmad"="false" "no-frame-pointer-elim"="true" "no-frame-pointer-elim-non-leaf" "no-infs-fp-math"="false" "no-nans-fp-math"="false" "no-signed-zeros-fp-math"="false" "no-trapping-math"="false" "stack-protector-buffer-size"="8" "target-cpu"="x86-64" "target-features"="+fxsr,+mmx,+sse,+sse2,+x87" "unsafe-fp-math"="false" "use-soft-float"="false" }
attributes #3 = { nounwind }
attributes #4 = { noinline norecurse optnone uwtable "correctly-rounded-divide-sqrt-fp-math"="false" "disable-tail-calls"="false" "less-precise-fpmad"="false" "no-frame-pointer-elim"="true" "no-frame-pointer-elim-non-leaf" "no-infs-fp-math"="false" "no-jump-tables"="false" "no-nans-fp-math"="false" "no-signed-zeros-fp-math"="false" "no-trapping-math"="false" "stack-protector-buffer-size"="8" "target-cpu"="x86-64" "target-features"="+fxsr,+mmx,+sse,+sse2,+x87" "unsafe-fp-math"="false" "use-soft-float"="false" }
attributes #5 = { noinline nounwind optnone uwtable "correctly-rounded-divide-sqrt-fp-math"="false" "disable-tail-calls"="false" "less-precise-fpmad"="false" "no-frame-pointer-elim"="true" "no-frame-pointer-elim-non-leaf" "no-infs-fp-math"="false" "no-jump-tables"="false" "no-nans-fp-math"="false" "no-signed-zeros-fp-math"="false" "no-trapping-math"="false" "stack-protector-buffer-size"="8" "target-cpu"="x86-64" "target-features"="+fxsr,+mmx,+sse,+sse2,+x87" "unsafe-fp-math"="false" "use-soft-float"="false" }
attributes #6 = { noinline noreturn nounwind }
attributes #7 = { noreturn nounwind }

!llvm.module.flags = !{!0}
!llvm.ident = !{!1}

!0 = !{i32 1, !"wchar_size", i32 4}
!1 = !{!"clang version 6.0.0-1ubuntu2 (tags/RELEASE_600/final)"}
