; ModuleID = 'test8.cpp'
source_filename = "test8.cpp"
target datalayout = "e-m:e-i64:64-f80:128-n8:16:32:64-S128"
target triple = "x86_64-pc-linux-gnu"

%"class.std::ios_base::Init" = type { i8 }
%"class.std::basic_ostream" = type { i32 (...)**, %"class.std::basic_ios" }
%"class.std::basic_ios" = type { %"class.std::ios_base", %"class.std::basic_ostream"*, i8, i8, %"class.std::basic_streambuf"*, %"class.std::ctype"*, %"class.std::num_put"*, %"class.std::num_get"* }
%"class.std::ios_base" = type { i32 (...)**, i64, i64, i32, i32, i32, %"struct.std::ios_base::_Callback_list"*, %"struct.std::ios_base::_Words", [8 x %"struct.std::ios_base::_Words"], i32, %"struct.std::ios_base::_Words"*, %"class.std::locale" }
%"struct.std::ios_base::_Callback_list" = type { %"struct.std::ios_base::_Callback_list"*, void (i32, %"class.std::ios_base"*, i32)*, i32, i32 }
%"struct.std::ios_base::_Words" = type { i8*, i64 }
%"class.std::locale" = type { %"class.std::locale::_Impl"* }
%"class.std::locale::_Impl" = type { i32, %"class.std::locale::facet"**, i64, %"class.std::locale::facet"**, i8** }
%"class.std::locale::facet" = type <{ i32 (...)**, i32, [4 x i8] }>
%"class.std::basic_streambuf" = type { i32 (...)**, i8*, i8*, i8*, i8*, i8*, i8*, %"class.std::locale" }
%"class.std::ctype" = type <{ %"class.std::locale::facet.base", [4 x i8], %struct.__locale_struct*, i8, [7 x i8], i32*, i32*, i16*, i8, [256 x i8], [256 x i8], i8, [6 x i8] }>
%"class.std::locale::facet.base" = type <{ i32 (...)**, i32 }>
%struct.__locale_struct = type { [13 x %struct.__locale_data*], i16*, i32*, i32*, [13 x i8*] }
%struct.__locale_data = type opaque
%"class.std::num_put" = type { %"class.std::locale::facet.base", [4 x i8] }
%"class.std::num_get" = type { %"class.std::locale::facet.base", [4 x i8] }
%"class.std::basic_istream" = type { i32 (...)**, i64, %"class.std::basic_ios" }

@_ZStL8__ioinit = internal global %"class.std::ios_base::Init" zeroinitializer, align 1
@__dso_handle = external hidden global i8
@_ZSt4cout = external global %"class.std::basic_ostream", align 8
@.str = private unnamed_addr constant [35 x i8] c"Enter rows and columns of matrix: \00", align 1
@_ZSt3cin = external global %"class.std::basic_istream", align 8
@.str.1 = private unnamed_addr constant [27 x i8] c"Enter elements of matrix: \00", align 1
@.str.2 = private unnamed_addr constant [17 x i8] c"Enter elements a\00", align 1
@.str.3 = private unnamed_addr constant [3 x i8] c": \00", align 1
@.str.4 = private unnamed_addr constant [17 x i8] c"Entered Matrix: \00", align 1
@.str.5 = private unnamed_addr constant [2 x i8] c" \00", align 1
@.str.6 = private unnamed_addr constant [22 x i8] c"Transpose of Matrix: \00", align 1
@llvm.global_ctors = appending global [1 x { i32, void ()*, i8* }] [{ i32, void ()*, i8* } { i32 65535, void ()* @_GLOBAL__sub_I_test8.cpp, i8* null }]

; Function Attrs: noinline uwtable
define internal void @__cxx_global_var_init() #0 section ".text.startup" {
  call void @_ZNSt8ios_base4InitC1Ev(%"class.std::ios_base::Init"* @_ZStL8__ioinit)
  %1 = call i32 @__cxa_atexit(void (i8*)* bitcast (void (%"class.std::ios_base::Init"*)* @_ZNSt8ios_base4InitD1Ev to void (i8*)*), i8* getelementptr inbounds (%"class.std::ios_base::Init", %"class.std::ios_base::Init"* @_ZStL8__ioinit, i32 0, i32 0), i8* @__dso_handle) #3
  ret void
}

declare void @_ZNSt8ios_base4InitC1Ev(%"class.std::ios_base::Init"*) unnamed_addr #1

; Function Attrs: nounwind
declare void @_ZNSt8ios_base4InitD1Ev(%"class.std::ios_base::Init"*) unnamed_addr #2

; Function Attrs: nounwind
declare i32 @__cxa_atexit(void (i8*)*, i8*, i8*) #3

; Function Attrs: noinline norecurse optnone uwtable
define i32 @main() #4 {
  %1 = alloca i32, align 4
  %2 = alloca [10 x [10 x i32]], align 16
  %3 = alloca [10 x [10 x i32]], align 16
  %4 = alloca i32, align 4
  %5 = alloca i32, align 4
  %6 = alloca i32, align 4
  %7 = alloca i32, align 4
  store i32 0, i32* %1, align 4
  %8 = call dereferenceable(272) %"class.std::basic_ostream"* @_ZStlsISt11char_traitsIcEERSt13basic_ostreamIcT_ES5_PKc(%"class.std::basic_ostream"* dereferenceable(272) @_ZSt4cout, i8* getelementptr inbounds ([35 x i8], [35 x i8]* @.str, i32 0, i32 0))
  %9 = call dereferenceable(280) %"class.std::basic_istream"* @_ZNSirsERi(%"class.std::basic_istream"* @_ZSt3cin, i32* dereferenceable(4) %4)
  %10 = call dereferenceable(280) %"class.std::basic_istream"* @_ZNSirsERi(%"class.std::basic_istream"* %9, i32* dereferenceable(4) %5)
  %11 = call dereferenceable(272) %"class.std::basic_ostream"* @_ZNSolsEPFRSoS_E(%"class.std::basic_ostream"* @_ZSt4cout, %"class.std::basic_ostream"* (%"class.std::basic_ostream"*)* @_ZSt4endlIcSt11char_traitsIcEERSt13basic_ostreamIT_T0_ES6_)
  %12 = call dereferenceable(272) %"class.std::basic_ostream"* @_ZStlsISt11char_traitsIcEERSt13basic_ostreamIcT_ES5_PKc(%"class.std::basic_ostream"* dereferenceable(272) %11, i8* getelementptr inbounds ([27 x i8], [27 x i8]* @.str.1, i32 0, i32 0))
  %13 = call dereferenceable(272) %"class.std::basic_ostream"* @_ZNSolsEPFRSoS_E(%"class.std::basic_ostream"* %12, %"class.std::basic_ostream"* (%"class.std::basic_ostream"*)* @_ZSt4endlIcSt11char_traitsIcEERSt13basic_ostreamIT_T0_ES6_)
  store i32 0, i32* %6, align 4
  br label %14

; <label>:14:                                     ; preds = %43, %0
  %15 = load i32, i32* %6, align 4
  %16 = load i32, i32* %4, align 4
  %17 = icmp slt i32 %15, %16
  br i1 %17, label %18, label %46

; <label>:18:                                     ; preds = %14
  store i32 0, i32* %7, align 4
  br label %19

; <label>:19:                                     ; preds = %39, %18
  %20 = load i32, i32* %7, align 4
  %21 = load i32, i32* %5, align 4
  %22 = icmp slt i32 %20, %21
  br i1 %22, label %23, label %42

; <label>:23:                                     ; preds = %19
  %24 = call dereferenceable(272) %"class.std::basic_ostream"* @_ZStlsISt11char_traitsIcEERSt13basic_ostreamIcT_ES5_PKc(%"class.std::basic_ostream"* dereferenceable(272) @_ZSt4cout, i8* getelementptr inbounds ([17 x i8], [17 x i8]* @.str.2, i32 0, i32 0))
  %25 = load i32, i32* %6, align 4
  %26 = add nsw i32 %25, 1
  %27 = call dereferenceable(272) %"class.std::basic_ostream"* @_ZNSolsEi(%"class.std::basic_ostream"* %24, i32 %26)
  %28 = load i32, i32* %7, align 4
  %29 = add nsw i32 %28, 1
  %30 = call dereferenceable(272) %"class.std::basic_ostream"* @_ZNSolsEi(%"class.std::basic_ostream"* %27, i32 %29)
  %31 = call dereferenceable(272) %"class.std::basic_ostream"* @_ZStlsISt11char_traitsIcEERSt13basic_ostreamIcT_ES5_PKc(%"class.std::basic_ostream"* dereferenceable(272) %30, i8* getelementptr inbounds ([3 x i8], [3 x i8]* @.str.3, i32 0, i32 0))
  %32 = load i32, i32* %6, align 4
  %33 = sext i32 %32 to i64
  %34 = getelementptr inbounds [10 x [10 x i32]], [10 x [10 x i32]]* %2, i64 0, i64 %33
  %35 = load i32, i32* %7, align 4
  %36 = sext i32 %35 to i64
  %37 = getelementptr inbounds [10 x i32], [10 x i32]* %34, i64 0, i64 %36
  %38 = call dereferenceable(280) %"class.std::basic_istream"* @_ZNSirsERi(%"class.std::basic_istream"* @_ZSt3cin, i32* dereferenceable(4) %37)
  br label %39

; <label>:39:                                     ; preds = %23
  %40 = load i32, i32* %7, align 4
  %41 = add nsw i32 %40, 1
  store i32 %41, i32* %7, align 4
  br label %19

; <label>:42:                                     ; preds = %19
  br label %43

; <label>:43:                                     ; preds = %42
  %44 = load i32, i32* %6, align 4
  %45 = add nsw i32 %44, 1
  store i32 %45, i32* %6, align 4
  br label %14

; <label>:46:                                     ; preds = %14
  %47 = call dereferenceable(272) %"class.std::basic_ostream"* @_ZNSolsEPFRSoS_E(%"class.std::basic_ostream"* @_ZSt4cout, %"class.std::basic_ostream"* (%"class.std::basic_ostream"*)* @_ZSt4endlIcSt11char_traitsIcEERSt13basic_ostreamIT_T0_ES6_)
  %48 = call dereferenceable(272) %"class.std::basic_ostream"* @_ZStlsISt11char_traitsIcEERSt13basic_ostreamIcT_ES5_PKc(%"class.std::basic_ostream"* dereferenceable(272) %47, i8* getelementptr inbounds ([17 x i8], [17 x i8]* @.str.4, i32 0, i32 0))
  %49 = call dereferenceable(272) %"class.std::basic_ostream"* @_ZNSolsEPFRSoS_E(%"class.std::basic_ostream"* %48, %"class.std::basic_ostream"* (%"class.std::basic_ostream"*)* @_ZSt4endlIcSt11char_traitsIcEERSt13basic_ostreamIT_T0_ES6_)
  store i32 0, i32* %6, align 4
  br label %50

; <label>:50:                                     ; preds = %81, %46
  %51 = load i32, i32* %6, align 4
  %52 = load i32, i32* %4, align 4
  %53 = icmp slt i32 %51, %52
  br i1 %53, label %54, label %84

; <label>:54:                                     ; preds = %50
  store i32 0, i32* %7, align 4
  br label %55

; <label>:55:                                     ; preds = %77, %54
  %56 = load i32, i32* %7, align 4
  %57 = load i32, i32* %5, align 4
  %58 = icmp slt i32 %56, %57
  br i1 %58, label %59, label %80

; <label>:59:                                     ; preds = %55
  %60 = call dereferenceable(272) %"class.std::basic_ostream"* @_ZStlsISt11char_traitsIcEERSt13basic_ostreamIcT_ES5_PKc(%"class.std::basic_ostream"* dereferenceable(272) @_ZSt4cout, i8* getelementptr inbounds ([2 x i8], [2 x i8]* @.str.5, i32 0, i32 0))
  %61 = load i32, i32* %6, align 4
  %62 = sext i32 %61 to i64
  %63 = getelementptr inbounds [10 x [10 x i32]], [10 x [10 x i32]]* %2, i64 0, i64 %62
  %64 = load i32, i32* %7, align 4
  %65 = sext i32 %64 to i64
  %66 = getelementptr inbounds [10 x i32], [10 x i32]* %63, i64 0, i64 %65
  %67 = load i32, i32* %66, align 4
  %68 = call dereferenceable(272) %"class.std::basic_ostream"* @_ZNSolsEi(%"class.std::basic_ostream"* %60, i32 %67)
  %69 = load i32, i32* %7, align 4
  %70 = load i32, i32* %5, align 4
  %71 = sub nsw i32 %70, 1
  %72 = icmp eq i32 %69, %71
  br i1 %72, label %73, label %76

; <label>:73:                                     ; preds = %59
  %74 = call dereferenceable(272) %"class.std::basic_ostream"* @_ZNSolsEPFRSoS_E(%"class.std::basic_ostream"* @_ZSt4cout, %"class.std::basic_ostream"* (%"class.std::basic_ostream"*)* @_ZSt4endlIcSt11char_traitsIcEERSt13basic_ostreamIT_T0_ES6_)
  %75 = call dereferenceable(272) %"class.std::basic_ostream"* @_ZNSolsEPFRSoS_E(%"class.std::basic_ostream"* %74, %"class.std::basic_ostream"* (%"class.std::basic_ostream"*)* @_ZSt4endlIcSt11char_traitsIcEERSt13basic_ostreamIT_T0_ES6_)
  br label %76

; <label>:76:                                     ; preds = %73, %59
  br label %77

; <label>:77:                                     ; preds = %76
  %78 = load i32, i32* %7, align 4
  %79 = add nsw i32 %78, 1
  store i32 %79, i32* %7, align 4
  br label %55

; <label>:80:                                     ; preds = %55
  br label %81

; <label>:81:                                     ; preds = %80
  %82 = load i32, i32* %6, align 4
  %83 = add nsw i32 %82, 1
  store i32 %83, i32* %6, align 4
  br label %50

; <label>:84:                                     ; preds = %50
  store i32 0, i32* %6, align 4
  br label %85

; <label>:85:                                     ; preds = %112, %84
  %86 = load i32, i32* %6, align 4
  %87 = load i32, i32* %4, align 4
  %88 = icmp slt i32 %86, %87
  br i1 %88, label %89, label %115

; <label>:89:                                     ; preds = %85
  store i32 0, i32* %7, align 4
  br label %90

; <label>:90:                                     ; preds = %108, %89
  %91 = load i32, i32* %7, align 4
  %92 = load i32, i32* %5, align 4
  %93 = icmp slt i32 %91, %92
  br i1 %93, label %94, label %111

; <label>:94:                                     ; preds = %90
  %95 = load i32, i32* %6, align 4
  %96 = sext i32 %95 to i64
  %97 = getelementptr inbounds [10 x [10 x i32]], [10 x [10 x i32]]* %2, i64 0, i64 %96
  %98 = load i32, i32* %7, align 4
  %99 = sext i32 %98 to i64
  %100 = getelementptr inbounds [10 x i32], [10 x i32]* %97, i64 0, i64 %99
  %101 = load i32, i32* %100, align 4
  %102 = load i32, i32* %7, align 4
  %103 = sext i32 %102 to i64
  %104 = getelementptr inbounds [10 x [10 x i32]], [10 x [10 x i32]]* %3, i64 0, i64 %103
  %105 = load i32, i32* %6, align 4
  %106 = sext i32 %105 to i64
  %107 = getelementptr inbounds [10 x i32], [10 x i32]* %104, i64 0, i64 %106
  store i32 %101, i32* %107, align 4
  br label %108

; <label>:108:                                    ; preds = %94
  %109 = load i32, i32* %7, align 4
  %110 = add nsw i32 %109, 1
  store i32 %110, i32* %7, align 4
  br label %90

; <label>:111:                                    ; preds = %90
  br label %112

; <label>:112:                                    ; preds = %111
  %113 = load i32, i32* %6, align 4
  %114 = add nsw i32 %113, 1
  store i32 %114, i32* %6, align 4
  br label %85

; <label>:115:                                    ; preds = %85
  %116 = call dereferenceable(272) %"class.std::basic_ostream"* @_ZNSolsEPFRSoS_E(%"class.std::basic_ostream"* @_ZSt4cout, %"class.std::basic_ostream"* (%"class.std::basic_ostream"*)* @_ZSt4endlIcSt11char_traitsIcEERSt13basic_ostreamIT_T0_ES6_)
  %117 = call dereferenceable(272) %"class.std::basic_ostream"* @_ZStlsISt11char_traitsIcEERSt13basic_ostreamIcT_ES5_PKc(%"class.std::basic_ostream"* dereferenceable(272) %116, i8* getelementptr inbounds ([22 x i8], [22 x i8]* @.str.6, i32 0, i32 0))
  %118 = call dereferenceable(272) %"class.std::basic_ostream"* @_ZNSolsEPFRSoS_E(%"class.std::basic_ostream"* %117, %"class.std::basic_ostream"* (%"class.std::basic_ostream"*)* @_ZSt4endlIcSt11char_traitsIcEERSt13basic_ostreamIT_T0_ES6_)
  store i32 0, i32* %6, align 4
  br label %119

; <label>:119:                                    ; preds = %150, %115
  %120 = load i32, i32* %6, align 4
  %121 = load i32, i32* %5, align 4
  %122 = icmp slt i32 %120, %121
  br i1 %122, label %123, label %153

; <label>:123:                                    ; preds = %119
  store i32 0, i32* %7, align 4
  br label %124

; <label>:124:                                    ; preds = %146, %123
  %125 = load i32, i32* %7, align 4
  %126 = load i32, i32* %4, align 4
  %127 = icmp slt i32 %125, %126
  br i1 %127, label %128, label %149

; <label>:128:                                    ; preds = %124
  %129 = call dereferenceable(272) %"class.std::basic_ostream"* @_ZStlsISt11char_traitsIcEERSt13basic_ostreamIcT_ES5_PKc(%"class.std::basic_ostream"* dereferenceable(272) @_ZSt4cout, i8* getelementptr inbounds ([2 x i8], [2 x i8]* @.str.5, i32 0, i32 0))
  %130 = load i32, i32* %6, align 4
  %131 = sext i32 %130 to i64
  %132 = getelementptr inbounds [10 x [10 x i32]], [10 x [10 x i32]]* %3, i64 0, i64 %131
  %133 = load i32, i32* %7, align 4
  %134 = sext i32 %133 to i64
  %135 = getelementptr inbounds [10 x i32], [10 x i32]* %132, i64 0, i64 %134
  %136 = load i32, i32* %135, align 4
  %137 = call dereferenceable(272) %"class.std::basic_ostream"* @_ZNSolsEi(%"class.std::basic_ostream"* %129, i32 %136)
  %138 = load i32, i32* %7, align 4
  %139 = load i32, i32* %4, align 4
  %140 = sub nsw i32 %139, 1
  %141 = icmp eq i32 %138, %140
  br i1 %141, label %142, label %145

; <label>:142:                                    ; preds = %128
  %143 = call dereferenceable(272) %"class.std::basic_ostream"* @_ZNSolsEPFRSoS_E(%"class.std::basic_ostream"* @_ZSt4cout, %"class.std::basic_ostream"* (%"class.std::basic_ostream"*)* @_ZSt4endlIcSt11char_traitsIcEERSt13basic_ostreamIT_T0_ES6_)
  %144 = call dereferenceable(272) %"class.std::basic_ostream"* @_ZNSolsEPFRSoS_E(%"class.std::basic_ostream"* %143, %"class.std::basic_ostream"* (%"class.std::basic_ostream"*)* @_ZSt4endlIcSt11char_traitsIcEERSt13basic_ostreamIT_T0_ES6_)
  br label %145

; <label>:145:                                    ; preds = %142, %128
  br label %146

; <label>:146:                                    ; preds = %145
  %147 = load i32, i32* %7, align 4
  %148 = add nsw i32 %147, 1
  store i32 %148, i32* %7, align 4
  br label %124

; <label>:149:                                    ; preds = %124
  br label %150

; <label>:150:                                    ; preds = %149
  %151 = load i32, i32* %6, align 4
  %152 = add nsw i32 %151, 1
  store i32 %152, i32* %6, align 4
  br label %119

; <label>:153:                                    ; preds = %119
  ret i32 0
}

declare dereferenceable(272) %"class.std::basic_ostream"* @_ZStlsISt11char_traitsIcEERSt13basic_ostreamIcT_ES5_PKc(%"class.std::basic_ostream"* dereferenceable(272), i8*) #1

declare dereferenceable(280) %"class.std::basic_istream"* @_ZNSirsERi(%"class.std::basic_istream"*, i32* dereferenceable(4)) #1

declare dereferenceable(272) %"class.std::basic_ostream"* @_ZNSolsEPFRSoS_E(%"class.std::basic_ostream"*, %"class.std::basic_ostream"* (%"class.std::basic_ostream"*)*) #1

declare dereferenceable(272) %"class.std::basic_ostream"* @_ZSt4endlIcSt11char_traitsIcEERSt13basic_ostreamIT_T0_ES6_(%"class.std::basic_ostream"* dereferenceable(272)) #1

declare dereferenceable(272) %"class.std::basic_ostream"* @_ZNSolsEi(%"class.std::basic_ostream"*, i32) #1

; Function Attrs: noinline uwtable
define internal void @_GLOBAL__sub_I_test8.cpp() #0 section ".text.startup" {
  call void @__cxx_global_var_init()
  ret void
}

attributes #0 = { noinline uwtable "correctly-rounded-divide-sqrt-fp-math"="false" "disable-tail-calls"="false" "less-precise-fpmad"="false" "no-frame-pointer-elim"="true" "no-frame-pointer-elim-non-leaf" "no-infs-fp-math"="false" "no-jump-tables"="false" "no-nans-fp-math"="false" "no-signed-zeros-fp-math"="false" "no-trapping-math"="false" "stack-protector-buffer-size"="8" "target-cpu"="x86-64" "target-features"="+fxsr,+mmx,+sse,+sse2,+x87" "unsafe-fp-math"="false" "use-soft-float"="false" }
attributes #1 = { "correctly-rounded-divide-sqrt-fp-math"="false" "disable-tail-calls"="false" "less-precise-fpmad"="false" "no-frame-pointer-elim"="true" "no-frame-pointer-elim-non-leaf" "no-infs-fp-math"="false" "no-nans-fp-math"="false" "no-signed-zeros-fp-math"="false" "no-trapping-math"="false" "stack-protector-buffer-size"="8" "target-cpu"="x86-64" "target-features"="+fxsr,+mmx,+sse,+sse2,+x87" "unsafe-fp-math"="false" "use-soft-float"="false" }
attributes #2 = { nounwind "correctly-rounded-divide-sqrt-fp-math"="false" "disable-tail-calls"="false" "less-precise-fpmad"="false" "no-frame-pointer-elim"="true" "no-frame-pointer-elim-non-leaf" "no-infs-fp-math"="false" "no-nans-fp-math"="false" "no-signed-zeros-fp-math"="false" "no-trapping-math"="false" "stack-protector-buffer-size"="8" "target-cpu"="x86-64" "target-features"="+fxsr,+mmx,+sse,+sse2,+x87" "unsafe-fp-math"="false" "use-soft-float"="false" }
attributes #3 = { nounwind }
attributes #4 = { noinline norecurse optnone uwtable "correctly-rounded-divide-sqrt-fp-math"="false" "disable-tail-calls"="false" "less-precise-fpmad"="false" "no-frame-pointer-elim"="true" "no-frame-pointer-elim-non-leaf" "no-infs-fp-math"="false" "no-jump-tables"="false" "no-nans-fp-math"="false" "no-signed-zeros-fp-math"="false" "no-trapping-math"="false" "stack-protector-buffer-size"="8" "target-cpu"="x86-64" "target-features"="+fxsr,+mmx,+sse,+sse2,+x87" "unsafe-fp-math"="false" "use-soft-float"="false" }

!llvm.module.flags = !{!0}
!llvm.ident = !{!1}

!0 = !{i32 1, !"wchar_size", i32 4}
!1 = !{!"clang version 6.0.0-1ubuntu2 (tags/RELEASE_600/final)"}
