; ModuleID = 'test8.cpp'
source_filename = "test8.cpp"
target datalayout = "e-m:e-i64:64-f80:128-n8:16:32:64-S128"
target triple = "x86_64-pc-linux-gnu"

%"class.std::ios_base::Init" = type { i8 }
%"class.std::basic_ostream" = type { i32 (...)**, %"class.std::basic_ios" }
%"class.std::basic_ios" = type { %"class.std::ios_base", %"class.std::basic_ostream"*, i8, i8, %"class.std::basic_streambuf"*, %"class.std::ctype"*, %"class.std::num_put"*, %"class.std::num_get"* }
%"class.std::ios_base" = type { i32 (...)**, i64, i64, i32, i32, i32, %"struct.std::ios_base::_Callback_list"*, %"struct.std::ios_base::_Words", [8 x %"struct.std::ios_base::_Words"], i32, %"struct.std::ios_base::_Words"*, %"class.std::locale" }
%"struct.std::ios_base::_Callback_list" = type { %"struct.std::ios_base::_Callback_list"*, void (i32, %"class.std::ios_base"*, i32)*, i32, i32 }
%"struct.std::ios_base::_Words" = type { i8*, i64 }
%"class.std::locale" = type { %"class.std::locale::_Impl"* }
%"class.std::locale::_Impl" = type { i32, %"class.std::locale::facet"**, i64, %"class.std::locale::facet"**, i8** }
%"class.std::locale::facet" = type <{ i32 (...)**, i32, [4 x i8] }>
%"class.std::basic_streambuf" = type { i32 (...)**, i8*, i8*, i8*, i8*, i8*, i8*, %"class.std::locale" }
%"class.std::ctype" = type <{ %"class.std::locale::facet.base", [4 x i8], %struct.__locale_struct*, i8, [7 x i8], i32*, i32*, i16*, i8, [256 x i8], [256 x i8], i8, [6 x i8] }>
%"class.std::locale::facet.base" = type <{ i32 (...)**, i32 }>
%struct.__locale_struct = type { [13 x %struct.__locale_data*], i16*, i32*, i32*, [13 x i8*] }
%struct.__locale_data = type opaque
%"class.std::num_put" = type { %"class.std::locale::facet.base", [4 x i8] }
%"class.std::num_get" = type { %"class.std::locale::facet.base", [4 x i8] }
%"class.std::basic_istream" = type { i32 (...)**, i64, %"class.std::basic_ios" }

@_ZStL8__ioinit = internal global %"class.std::ios_base::Init" zeroinitializer, align 1
@__dso_handle = external hidden global i8
@_ZSt4cout = external global %"class.std::basic_ostream", align 8
@.str = private unnamed_addr constant [35 x i8] c"Enter rows and columns of matrix: \00", align 1
@_ZSt3cin = external global %"class.std::basic_istream", align 8
@.str.1 = private unnamed_addr constant [27 x i8] c"Enter elements of matrix: \00", align 1
@.str.2 = private unnamed_addr constant [17 x i8] c"Enter elements a\00", align 1
@.str.3 = private unnamed_addr constant [3 x i8] c": \00", align 1
@.str.4 = private unnamed_addr constant [17 x i8] c"Entered Matrix: \00", align 1
@.str.5 = private unnamed_addr constant [2 x i8] c" \00", align 1
@.str.6 = private unnamed_addr constant [22 x i8] c"Transpose of Matrix: \00", align 1
@llvm.global_ctors = appending global [1 x { i32, void ()*, i8* }] [{ i32, void ()*, i8* } { i32 65535, void ()* @_GLOBAL__sub_I_test8.cpp, i8* null }]

; Function Attrs: noinline uwtable
define internal void @__cxx_global_var_init() #0 section ".text.startup" {
  call void @_ZNSt8ios_base4InitC1Ev(%"class.std::ios_base::Init"* @_ZStL8__ioinit)
  %1 = call i32 @__cxa_atexit(void (i8*)* bitcast (void (%"class.std::ios_base::Init"*)* @_ZNSt8ios_base4InitD1Ev to void (i8*)*), i8* getelementptr inbounds (%"class.std::ios_base::Init", %"class.std::ios_base::Init"* @_ZStL8__ioinit, i32 0, i32 0), i8* @__dso_handle) #3
  ret void
}

declare void @_ZNSt8ios_base4InitC1Ev(%"class.std::ios_base::Init"*) unnamed_addr #1

; Function Attrs: nounwind
declare void @_ZNSt8ios_base4InitD1Ev(%"class.std::ios_base::Init"*) unnamed_addr #2

; Function Attrs: nounwind
declare i32 @__cxa_atexit(void (i8*)*, i8*, i8*) #3

; Function Attrs: noinline optnone uwtable
define i32 @_Z2lov() #4 {
  %1 = alloca [10 x [10 x i32]], align 16
  %2 = alloca [10 x [10 x i32]], align 16
  %3 = alloca i32, align 4
  %4 = alloca i32, align 4
  %5 = alloca i32, align 4
  %6 = alloca i32, align 4
  %7 = call dereferenceable(272) %"class.std::basic_ostream"* @_ZStlsISt11char_traitsIcEERSt13basic_ostreamIcT_ES5_PKc(%"class.std::basic_ostream"* dereferenceable(272) @_ZSt4cout, i8* getelementptr inbounds ([35 x i8], [35 x i8]* @.str, i32 0, i32 0))
  %8 = call dereferenceable(280) %"class.std::basic_istream"* @_ZNSirsERi(%"class.std::basic_istream"* @_ZSt3cin, i32* dereferenceable(4) %3)
  %9 = call dereferenceable(280) %"class.std::basic_istream"* @_ZNSirsERi(%"class.std::basic_istream"* %8, i32* dereferenceable(4) %4)
  %10 = call dereferenceable(272) %"class.std::basic_ostream"* @_ZNSolsEPFRSoS_E(%"class.std::basic_ostream"* @_ZSt4cout, %"class.std::basic_ostream"* (%"class.std::basic_ostream"*)* @_ZSt4endlIcSt11char_traitsIcEERSt13basic_ostreamIT_T0_ES6_)
  %11 = call dereferenceable(272) %"class.std::basic_ostream"* @_ZStlsISt11char_traitsIcEERSt13basic_ostreamIcT_ES5_PKc(%"class.std::basic_ostream"* dereferenceable(272) %10, i8* getelementptr inbounds ([27 x i8], [27 x i8]* @.str.1, i32 0, i32 0))
  %12 = call dereferenceable(272) %"class.std::basic_ostream"* @_ZNSolsEPFRSoS_E(%"class.std::basic_ostream"* %11, %"class.std::basic_ostream"* (%"class.std::basic_ostream"*)* @_ZSt4endlIcSt11char_traitsIcEERSt13basic_ostreamIT_T0_ES6_)
  store i32 0, i32* %5, align 4
  br label %13

; <label>:13:                                     ; preds = %42, %0
  %14 = load i32, i32* %5, align 4
  %15 = load i32, i32* %3, align 4
  %16 = icmp slt i32 %14, %15
  br i1 %16, label %17, label %45

; <label>:17:                                     ; preds = %13
  store i32 0, i32* %6, align 4
  br label %18

; <label>:18:                                     ; preds = %38, %17
  %19 = load i32, i32* %6, align 4
  %20 = load i32, i32* %4, align 4
  %21 = icmp slt i32 %19, %20
  br i1 %21, label %22, label %41

; <label>:22:                                     ; preds = %18
  %23 = call dereferenceable(272) %"class.std::basic_ostream"* @_ZStlsISt11char_traitsIcEERSt13basic_ostreamIcT_ES5_PKc(%"class.std::basic_ostream"* dereferenceable(272) @_ZSt4cout, i8* getelementptr inbounds ([17 x i8], [17 x i8]* @.str.2, i32 0, i32 0))
  %24 = load i32, i32* %5, align 4
  %25 = add nsw i32 %24, 1
  %26 = call dereferenceable(272) %"class.std::basic_ostream"* @_ZNSolsEi(%"class.std::basic_ostream"* %23, i32 %25)
  %27 = load i32, i32* %6, align 4
  %28 = add nsw i32 %27, 1
  %29 = call dereferenceable(272) %"class.std::basic_ostream"* @_ZNSolsEi(%"class.std::basic_ostream"* %26, i32 %28)
  %30 = call dereferenceable(272) %"class.std::basic_ostream"* @_ZStlsISt11char_traitsIcEERSt13basic_ostreamIcT_ES5_PKc(%"class.std::basic_ostream"* dereferenceable(272) %29, i8* getelementptr inbounds ([3 x i8], [3 x i8]* @.str.3, i32 0, i32 0))
  %31 = load i32, i32* %5, align 4
  %32 = sext i32 %31 to i64
  %33 = getelementptr inbounds [10 x [10 x i32]], [10 x [10 x i32]]* %1, i64 0, i64 %32
  %34 = load i32, i32* %6, align 4
  %35 = sext i32 %34 to i64
  %36 = getelementptr inbounds [10 x i32], [10 x i32]* %33, i64 0, i64 %35
  %37 = call dereferenceable(280) %"class.std::basic_istream"* @_ZNSirsERi(%"class.std::basic_istream"* @_ZSt3cin, i32* dereferenceable(4) %36)
  br label %38

; <label>:38:                                     ; preds = %22
  %39 = load i32, i32* %6, align 4
  %40 = add nsw i32 %39, 1
  store i32 %40, i32* %6, align 4
  br label %18

; <label>:41:                                     ; preds = %18
  br label %42

; <label>:42:                                     ; preds = %41
  %43 = load i32, i32* %5, align 4
  %44 = add nsw i32 %43, 1
  store i32 %44, i32* %5, align 4
  br label %13

; <label>:45:                                     ; preds = %13
  %46 = call dereferenceable(272) %"class.std::basic_ostream"* @_ZNSolsEPFRSoS_E(%"class.std::basic_ostream"* @_ZSt4cout, %"class.std::basic_ostream"* (%"class.std::basic_ostream"*)* @_ZSt4endlIcSt11char_traitsIcEERSt13basic_ostreamIT_T0_ES6_)
  %47 = call dereferenceable(272) %"class.std::basic_ostream"* @_ZStlsISt11char_traitsIcEERSt13basic_ostreamIcT_ES5_PKc(%"class.std::basic_ostream"* dereferenceable(272) %46, i8* getelementptr inbounds ([17 x i8], [17 x i8]* @.str.4, i32 0, i32 0))
  %48 = call dereferenceable(272) %"class.std::basic_ostream"* @_ZNSolsEPFRSoS_E(%"class.std::basic_ostream"* %47, %"class.std::basic_ostream"* (%"class.std::basic_ostream"*)* @_ZSt4endlIcSt11char_traitsIcEERSt13basic_ostreamIT_T0_ES6_)
  store i32 0, i32* %5, align 4
  br label %49

; <label>:49:                                     ; preds = %80, %45
  %50 = load i32, i32* %5, align 4
  %51 = load i32, i32* %3, align 4
  %52 = icmp slt i32 %50, %51
  br i1 %52, label %53, label %83

; <label>:53:                                     ; preds = %49
  store i32 0, i32* %6, align 4
  br label %54

; <label>:54:                                     ; preds = %76, %53
  %55 = load i32, i32* %6, align 4
  %56 = load i32, i32* %4, align 4
  %57 = icmp slt i32 %55, %56
  br i1 %57, label %58, label %79

; <label>:58:                                     ; preds = %54
  %59 = call dereferenceable(272) %"class.std::basic_ostream"* @_ZStlsISt11char_traitsIcEERSt13basic_ostreamIcT_ES5_PKc(%"class.std::basic_ostream"* dereferenceable(272) @_ZSt4cout, i8* getelementptr inbounds ([2 x i8], [2 x i8]* @.str.5, i32 0, i32 0))
  %60 = load i32, i32* %5, align 4
  %61 = sext i32 %60 to i64
  %62 = getelementptr inbounds [10 x [10 x i32]], [10 x [10 x i32]]* %1, i64 0, i64 %61
  %63 = load i32, i32* %6, align 4
  %64 = sext i32 %63 to i64
  %65 = getelementptr inbounds [10 x i32], [10 x i32]* %62, i64 0, i64 %64
  %66 = load i32, i32* %65, align 4
  %67 = call dereferenceable(272) %"class.std::basic_ostream"* @_ZNSolsEi(%"class.std::basic_ostream"* %59, i32 %66)
  %68 = load i32, i32* %6, align 4
  %69 = load i32, i32* %4, align 4
  %70 = sub nsw i32 %69, 1
  %71 = icmp eq i32 %68, %70
  br i1 %71, label %72, label %75

; <label>:72:                                     ; preds = %58
  %73 = call dereferenceable(272) %"class.std::basic_ostream"* @_ZNSolsEPFRSoS_E(%"class.std::basic_ostream"* @_ZSt4cout, %"class.std::basic_ostream"* (%"class.std::basic_ostream"*)* @_ZSt4endlIcSt11char_traitsIcEERSt13basic_ostreamIT_T0_ES6_)
  %74 = call dereferenceable(272) %"class.std::basic_ostream"* @_ZNSolsEPFRSoS_E(%"class.std::basic_ostream"* %73, %"class.std::basic_ostream"* (%"class.std::basic_ostream"*)* @_ZSt4endlIcSt11char_traitsIcEERSt13basic_ostreamIT_T0_ES6_)
  br label %75

; <label>:75:                                     ; preds = %72, %58
  br label %76

; <label>:76:                                     ; preds = %75
  %77 = load i32, i32* %6, align 4
  %78 = add nsw i32 %77, 1
  store i32 %78, i32* %6, align 4
  br label %54

; <label>:79:                                     ; preds = %54
  br label %80

; <label>:80:                                     ; preds = %79
  %81 = load i32, i32* %5, align 4
  %82 = add nsw i32 %81, 1
  store i32 %82, i32* %5, align 4
  br label %49

; <label>:83:                                     ; preds = %49
  store i32 0, i32* %5, align 4
  br label %84

; <label>:84:                                     ; preds = %111, %83
  %85 = load i32, i32* %5, align 4
  %86 = load i32, i32* %3, align 4
  %87 = icmp slt i32 %85, %86
  br i1 %87, label %88, label %114

; <label>:88:                                     ; preds = %84
  store i32 0, i32* %6, align 4
  br label %89

; <label>:89:                                     ; preds = %107, %88
  %90 = load i32, i32* %6, align 4
  %91 = load i32, i32* %4, align 4
  %92 = icmp slt i32 %90, %91
  br i1 %92, label %93, label %110

; <label>:93:                                     ; preds = %89
  %94 = load i32, i32* %5, align 4
  %95 = sext i32 %94 to i64
  %96 = getelementptr inbounds [10 x [10 x i32]], [10 x [10 x i32]]* %1, i64 0, i64 %95
  %97 = load i32, i32* %6, align 4
  %98 = sext i32 %97 to i64
  %99 = getelementptr inbounds [10 x i32], [10 x i32]* %96, i64 0, i64 %98
  %100 = load i32, i32* %99, align 4
  %101 = load i32, i32* %6, align 4
  %102 = sext i32 %101 to i64
  %103 = getelementptr inbounds [10 x [10 x i32]], [10 x [10 x i32]]* %2, i64 0, i64 %102
  %104 = load i32, i32* %5, align 4
  %105 = sext i32 %104 to i64
  %106 = getelementptr inbounds [10 x i32], [10 x i32]* %103, i64 0, i64 %105
  store i32 %100, i32* %106, align 4
  br label %107

; <label>:107:                                    ; preds = %93
  %108 = load i32, i32* %6, align 4
  %109 = add nsw i32 %108, 1
  store i32 %109, i32* %6, align 4
  br label %89

; <label>:110:                                    ; preds = %89
  br label %111

; <label>:111:                                    ; preds = %110
  %112 = load i32, i32* %5, align 4
  %113 = add nsw i32 %112, 1
  store i32 %113, i32* %5, align 4
  br label %84

; <label>:114:                                    ; preds = %84
  %115 = call dereferenceable(272) %"class.std::basic_ostream"* @_ZNSolsEPFRSoS_E(%"class.std::basic_ostream"* @_ZSt4cout, %"class.std::basic_ostream"* (%"class.std::basic_ostream"*)* @_ZSt4endlIcSt11char_traitsIcEERSt13basic_ostreamIT_T0_ES6_)
  %116 = call dereferenceable(272) %"class.std::basic_ostream"* @_ZStlsISt11char_traitsIcEERSt13basic_ostreamIcT_ES5_PKc(%"class.std::basic_ostream"* dereferenceable(272) %115, i8* getelementptr inbounds ([22 x i8], [22 x i8]* @.str.6, i32 0, i32 0))
  %117 = call dereferenceable(272) %"class.std::basic_ostream"* @_ZNSolsEPFRSoS_E(%"class.std::basic_ostream"* %116, %"class.std::basic_ostream"* (%"class.std::basic_ostream"*)* @_ZSt4endlIcSt11char_traitsIcEERSt13basic_ostreamIT_T0_ES6_)
  store i32 0, i32* %5, align 4
  br label %118

; <label>:118:                                    ; preds = %149, %114
  %119 = load i32, i32* %5, align 4
  %120 = load i32, i32* %4, align 4
  %121 = icmp slt i32 %119, %120
  br i1 %121, label %122, label %152

; <label>:122:                                    ; preds = %118
  store i32 0, i32* %6, align 4
  br label %123

; <label>:123:                                    ; preds = %145, %122
  %124 = load i32, i32* %6, align 4
  %125 = load i32, i32* %3, align 4
  %126 = icmp slt i32 %124, %125
  br i1 %126, label %127, label %148

; <label>:127:                                    ; preds = %123
  %128 = call dereferenceable(272) %"class.std::basic_ostream"* @_ZStlsISt11char_traitsIcEERSt13basic_ostreamIcT_ES5_PKc(%"class.std::basic_ostream"* dereferenceable(272) @_ZSt4cout, i8* getelementptr inbounds ([2 x i8], [2 x i8]* @.str.5, i32 0, i32 0))
  %129 = load i32, i32* %5, align 4
  %130 = sext i32 %129 to i64
  %131 = getelementptr inbounds [10 x [10 x i32]], [10 x [10 x i32]]* %2, i64 0, i64 %130
  %132 = load i32, i32* %6, align 4
  %133 = sext i32 %132 to i64
  %134 = getelementptr inbounds [10 x i32], [10 x i32]* %131, i64 0, i64 %133
  %135 = load i32, i32* %134, align 4
  %136 = call dereferenceable(272) %"class.std::basic_ostream"* @_ZNSolsEi(%"class.std::basic_ostream"* %128, i32 %135)
  %137 = load i32, i32* %6, align 4
  %138 = load i32, i32* %3, align 4
  %139 = sub nsw i32 %138, 1
  %140 = icmp eq i32 %137, %139
  br i1 %140, label %141, label %144

; <label>:141:                                    ; preds = %127
  %142 = call dereferenceable(272) %"class.std::basic_ostream"* @_ZNSolsEPFRSoS_E(%"class.std::basic_ostream"* @_ZSt4cout, %"class.std::basic_ostream"* (%"class.std::basic_ostream"*)* @_ZSt4endlIcSt11char_traitsIcEERSt13basic_ostreamIT_T0_ES6_)
  %143 = call dereferenceable(272) %"class.std::basic_ostream"* @_ZNSolsEPFRSoS_E(%"class.std::basic_ostream"* %142, %"class.std::basic_ostream"* (%"class.std::basic_ostream"*)* @_ZSt4endlIcSt11char_traitsIcEERSt13basic_ostreamIT_T0_ES6_)
  br label %144

; <label>:144:                                    ; preds = %141, %127
  br label %145

; <label>:145:                                    ; preds = %144
  %146 = load i32, i32* %6, align 4
  %147 = add nsw i32 %146, 1
  store i32 %147, i32* %6, align 4
  br label %123

; <label>:148:                                    ; preds = %123
  br label %149

; <label>:149:                                    ; preds = %148
  %150 = load i32, i32* %5, align 4
  %151 = add nsw i32 %150, 1
  store i32 %151, i32* %5, align 4
  br label %118

; <label>:152:                                    ; preds = %118
  ret i32 0
}

declare dereferenceable(272) %"class.std::basic_ostream"* @_ZStlsISt11char_traitsIcEERSt13basic_ostreamIcT_ES5_PKc(%"class.std::basic_ostream"* dereferenceable(272), i8*) #1

declare dereferenceable(280) %"class.std::basic_istream"* @_ZNSirsERi(%"class.std::basic_istream"*, i32* dereferenceable(4)) #1

declare dereferenceable(272) %"class.std::basic_ostream"* @_ZNSolsEPFRSoS_E(%"class.std::basic_ostream"*, %"class.std::basic_ostream"* (%"class.std::basic_ostream"*)*) #1

declare dereferenceable(272) %"class.std::basic_ostream"* @_ZSt4endlIcSt11char_traitsIcEERSt13basic_ostreamIT_T0_ES6_(%"class.std::basic_ostream"* dereferenceable(272)) #1

declare dereferenceable(272) %"class.std::basic_ostream"* @_ZNSolsEi(%"class.std::basic_ostream"*, i32) #1

; Function Attrs: noinline uwtable
define internal void @_GLOBAL__sub_I_test8.cpp() #0 section ".text.startup" {
  call void @__cxx_global_var_init()
  ret void
}

attributes #0 = { noinline uwtable "correctly-rounded-divide-sqrt-fp-math"="false" "disable-tail-calls"="false" "less-precise-fpmad"="false" "no-frame-pointer-elim"="true" "no-frame-pointer-elim-non-leaf" "no-infs-fp-math"="false" "no-jump-tables"="false" "no-nans-fp-math"="false" "no-signed-zeros-fp-math"="false" "no-trapping-math"="false" "stack-protector-buffer-size"="8" "target-cpu"="x86-64" "target-features"="+fxsr,+mmx,+sse,+sse2,+x87" "unsafe-fp-math"="false" "use-soft-float"="false" }
attributes #1 = { "correctly-rounded-divide-sqrt-fp-math"="false" "disable-tail-calls"="false" "less-precise-fpmad"="false" "no-frame-pointer-elim"="true" "no-frame-pointer-elim-non-leaf" "no-infs-fp-math"="false" "no-nans-fp-math"="false" "no-signed-zeros-fp-math"="false" "no-trapping-math"="false" "stack-protector-buffer-size"="8" "target-cpu"="x86-64" "target-features"="+fxsr,+mmx,+sse,+sse2,+x87" "unsafe-fp-math"="false" "use-soft-float"="false" }
attributes #2 = { nounwind "correctly-rounded-divide-sqrt-fp-math"="false" "disable-tail-calls"="false" "less-precise-fpmad"="false" "no-frame-pointer-elim"="true" "no-frame-pointer-elim-non-leaf" "no-infs-fp-math"="false" "no-nans-fp-math"="false" "no-signed-zeros-fp-math"="false" "no-trapping-math"="false" "stack-protector-buffer-size"="8" "target-cpu"="x86-64" "target-features"="+fxsr,+mmx,+sse,+sse2,+x87" "unsafe-fp-math"="false" "use-soft-float"="false" }
attributes #3 = { nounwind }
attributes #4 = { noinline optnone uwtable "correctly-rounded-divide-sqrt-fp-math"="false" "disable-tail-calls"="false" "less-precise-fpmad"="false" "no-frame-pointer-elim"="true" "no-frame-pointer-elim-non-leaf" "no-infs-fp-math"="false" "no-jump-tables"="false" "no-nans-fp-math"="false" "no-signed-zeros-fp-math"="false" "no-trapping-math"="false" "stack-protector-buffer-size"="8" "target-cpu"="x86-64" "target-features"="+fxsr,+mmx,+sse,+sse2,+x87" "unsafe-fp-math"="false" "use-soft-float"="false" }

!llvm.module.flags = !{!0}
!llvm.ident = !{!1}

!0 = !{i32 1, !"wchar_size", i32 4}
!1 = !{!"clang version 6.0.0-1ubuntu2 (tags/RELEASE_600/final)"}
